; Function Attrs: mustprogress uwtable
define noundef nonnull align 8 dereferenceable(8) ptr @_ZN2cv4gapi4s11nrsERNS1_8IIStreamERNS_6detail10OpaqueKindE(ptr noundef nonnull returned align 8 dereferenceable(8) %0, ptr noundef nonnull writeonly align 4 captures(none) dereferenceable(4) initializes((0, 4)) %1) local_unnamed_addr #3 {
  %3 = alloca i32, align 4
  call void @llvm.lifetime.start.p0(i64 4, ptr nonnull %3) #31
  store i32 0, ptr %3, align 4, !tbaa !38
  %4 = load ptr, ptr %0, align 8, !tbaa !8
  %5 = getelementptr inbounds nuw i8, ptr %4, i64 64
  %6 = load ptr, ptr %5, align 8
  %7 = call noundef nonnull align 8 dereferenceable(8) ptr %6(ptr noundef nonnull align 8 dereferenceable(8) %0, ptr noundef nonnull align 4 dereferenceable(4) %3)
  %8 = load i32, ptr %3, align 4, !tbaa !38
  store i32 %8, ptr %1, align 4, !tbaa !204
  call void @llvm.lifetime.end.p0(i64 4, ptr nonnull %3) #31
  ret ptr %0
}